target datalayout = "e-m:e-p270:32:32-p271:32:32-p272:64:64-i64:64-i128:128-f80:128-n8:16:32:64-S128"
target triple = "x86_64-pc-linux-gnu"

%struct.H5G_entry_t = type { i32, %union.H5G_cache_t, i64, i64 }
%union.H5G_cache_t = type { %struct.anon }
%struct.anon = type { i64, i64 }
%struct.anon.0 = type { i64 }

@.str.11 = private unnamed_addr constant [13 x i8] c"%*s%-*s %lu\0A\00", align 1
@.str.12 = private unnamed_addr constant [1 x i8] zeroinitializer, align 1
@.str.13 = private unnamed_addr constant [31 x i8] c"Name offset into private heap:\00", align 1
@.str.14 = private unnamed_addr constant [23 x i8] c"Object header address:\00", align 1
@.str.15 = private unnamed_addr constant [9 x i8] c"%*s%-*s \00", align 1
@.str.16 = private unnamed_addr constant [17 x i8] c"Cache info type:\00", align 1
@.str.17 = private unnamed_addr constant [16 x i8] c"Nothing Cached\0A\00", align 1
@.str.18 = private unnamed_addr constant [14 x i8] c"Symbol Table\0A\00", align 1
@.str.19 = private unnamed_addr constant [9 x i8] c"%*s%-*s\0A\00", align 1
@.str.20 = private unnamed_addr constant [26 x i8] c"Cached entry information:\00", align 1
@.str.21 = private unnamed_addr constant [16 x i8] c"B-tree address:\00", align 1
@.str.22 = private unnamed_addr constant [14 x i8] c"Heap address:\00", align 1
@.str.23 = private unnamed_addr constant [15 x i8] c"Symbolic Link\0A\00", align 1
@.str.24 = private unnamed_addr constant [20 x i8] c"Cached information:\00", align 1
@.str.25 = private unnamed_addr constant [19 x i8] c"Link value offset:\00", align 1
@.str.26 = private unnamed_addr constant [12 x i8] c"%*s%-*s %s\0A\00", align 1
@.str.27 = private unnamed_addr constant [12 x i8] c"Link value:\00", align 1
@.str.28 = private unnamed_addr constant [57 x i8] c"Warning: Invalid heap address given, name not displayed!\00", align 1
@.str.29 = private unnamed_addr constant [28 x i8] c"*** Unknown symbol type %d\0A\00", align 1

; Function Attrs: nounwind uwtable
define i32 @H5G__ent_debug(ptr noundef %0, ptr noundef %1, i32 noundef %2, i32 noundef %3, ptr noundef %4) #0 {
  %6 = alloca ptr, align 8
  %7 = alloca ptr, align 8
  %8 = alloca i32, align 4
  %9 = alloca i32, align 4
  %10 = alloca ptr, align 8
  %11 = alloca ptr, align 8
  %12 = alloca i32, align 4
  %13 = alloca i32, align 4
  store ptr %0, ptr %6, align 8
  store ptr %1, ptr %7, align 8
  store i32 %2, ptr %8, align 4
  store i32 %3, ptr %9, align 4
  store ptr %4, ptr %10, align 8
  store ptr null, ptr %11, align 8
  %14 = load i32, ptr %8, align 4
  %15 = add nsw i32 %14, 3
  store i32 %15, ptr %12, align 4
  %16 = load i32, ptr %9, align 4
  %17 = sub nsw i32 %16, 3
  %18 = icmp sgt i32 0, %17
  br i1 %18, label %19, label %20

19:                                               ; preds = %5
  br label %23

20:                                               ; preds = %5
  %21 = load i32, ptr %9, align 4
  %22 = sub nsw i32 %21, 3
  br label %23

23:                                               ; preds = %20, %19
  %24 = phi i32 [ 0, %19 ], [ %22, %20 ]
  store i32 %24, ptr %13, align 4
  %25 = load ptr, ptr %7, align 8
  %26 = load i32, ptr %8, align 4
  %27 = load i32, ptr %9, align 4
  %28 = load ptr, ptr %6, align 8
  %29 = getelementptr inbounds %struct.H5G_entry_t, ptr %28, i32 0, i32 2
  %30 = load i64, ptr %29, align 8
  %31 = call i32 (ptr, ptr, ...) @fprintf(ptr noundef %25, ptr noundef @.str.11, i32 noundef %26, ptr noundef @.str.12, i32 noundef %27, ptr noundef @.str.13, i64 noundef %30) #5
  %32 = load ptr, ptr %7, align 8
  %33 = load i32, ptr %8, align 4
  %34 = load i32, ptr %9, align 4
  %35 = load ptr, ptr %6, align 8
  %36 = getelementptr inbounds %struct.H5G_entry_t, ptr %35, i32 0, i32 3
  %37 = load i64, ptr %36, align 8
  %38 = call i32 (ptr, ptr, ...) @fprintf(ptr noundef %32, ptr noundef @.str.11, i32 noundef %33, ptr noundef @.str.12, i32 noundef %34, ptr noundef @.str.14, i64 noundef %37) #5
  %39 = load ptr, ptr %7, align 8
  %40 = load i32, ptr %8, align 4
  %41 = load i32, ptr %9, align 4
  %42 = call i32 (ptr, ptr, ...) @fprintf(ptr noundef %39, ptr noundef @.str.15, i32 noundef %40, ptr noundef @.str.12, i32 noundef %41, ptr noundef @.str.16) #5
  %43 = load ptr, ptr %6, align 8
  %44 = getelementptr inbounds %struct.H5G_entry_t, ptr %43, i32 0, i32 0
  %45 = load i32, ptr %44, align 8
  switch i32 %45, label %114 [
    i32 0, label %46
    i32 1, label %49
    i32 2, label %72
    i32 -1, label %113
    i32 3, label %113
  ]

46:                                               ; preds = %23
  %47 = load ptr, ptr %7, align 8
  %48 = call i32 (ptr, ptr, ...) @fprintf(ptr noundef %47, ptr noundef @.str.17) #5
  br label %120

49:                                               ; preds = %23
  %50 = load ptr, ptr %7, align 8
  %51 = call i32 (ptr, ptr, ...) @fprintf(ptr noundef %50, ptr noundef @.str.18) #5
  %52 = load ptr, ptr %7, align 8
  %53 = load i32, ptr %8, align 4
  %54 = load i32, ptr %9, align 4
  %55 = call i32 (ptr, ptr, ...) @fprintf(ptr noundef %52, ptr noundef @.str.19, i32 noundef %53, ptr noundef @.str.12, i32 noundef %54, ptr noundef @.str.20) #5
  %56 = load ptr, ptr %7, align 8
  %57 = load i32, ptr %12, align 4
  %58 = load i32, ptr %13, align 4
  %59 = load ptr, ptr %6, align 8
  %60 = getelementptr inbounds %struct.H5G_entry_t, ptr %59, i32 0, i32 1
  %61 = getelementptr inbounds %struct.anon, ptr %60, i32 0, i32 0
  %62 = load i64, ptr %61, align 8
  %63 = call i32 (ptr, ptr, ...) @fprintf(ptr noundef %56, ptr noundef @.str.11, i32 noundef %57, ptr noundef @.str.12, i32 noundef %58, ptr noundef @.str.21, i64 noundef %62) #5
  %64 = load ptr, ptr %7, align 8
  %65 = load i32, ptr %12, align 4
  %66 = load i32, ptr %13, align 4
  %67 = load ptr, ptr %6, align 8
  %68 = getelementptr inbounds %struct.H5G_entry_t, ptr %67, i32 0, i32 1
  %69 = getelementptr inbounds %struct.anon, ptr %68, i32 0, i32 1
  %70 = load i64, ptr %69, align 8
  %71 = call i32 (ptr, ptr, ...) @fprintf(ptr noundef %64, ptr noundef @.str.11, i32 noundef %65, ptr noundef @.str.12, i32 noundef %66, ptr noundef @.str.22, i64 noundef %70) #5
  br label %120

72:                                               ; preds = %23
  %73 = load ptr, ptr %7, align 8
  %74 = call i32 (ptr, ptr, ...) @fprintf(ptr noundef %73, ptr noundef @.str.23) #5
  %75 = load ptr, ptr %7, align 8
  %76 = load i32, ptr %8, align 4
  %77 = load i32, ptr %9, align 4
  %78 = call i32 (ptr, ptr, ...) @fprintf(ptr noundef %75, ptr noundef @.str.19, i32 noundef %76, ptr noundef @.str.12, i32 noundef %77, ptr noundef @.str.24) #5
  %79 = load ptr, ptr %7, align 8
  %80 = load i32, ptr %12, align 4
  %81 = load i32, ptr %13, align 4
  %82 = load ptr, ptr %6, align 8
  %83 = getelementptr inbounds %struct.H5G_entry_t, ptr %82, i32 0, i32 1
  %84 = getelementptr inbounds %struct.anon.0, ptr %83, i32 0, i32 0
  %85 = load i64, ptr %84, align 8
  %86 = call i32 (ptr, ptr, ...) @fprintf(ptr noundef %79, ptr noundef @.str.11, i32 noundef %80, ptr noundef @.str.12, i32 noundef %81, ptr noundef @.str.25, i64 noundef %85) #5
  %87 = load ptr, ptr %10, align 8
  %88 = icmp ne ptr %87, null
  br i1 %88, label %89, label %107

89:                                               ; preds = %72
  %90 = load ptr, ptr %10, align 8
  %91 = load ptr, ptr %6, align 8
  %92 = getelementptr inbounds %struct.H5G_entry_t, ptr %91, i32 0, i32 1
  %93 = getelementptr inbounds %struct.anon.0, ptr %92, i32 0, i32 0
  %94 = load i64, ptr %93, align 8
  %95 = call ptr @H5HL_offset_into(ptr noundef %90, i64 noundef %94)
  store ptr %95, ptr %11, align 8
  %96 = load ptr, ptr %7, align 8
  %97 = load i32, ptr %12, align 4
  %98 = load i32, ptr %13, align 4
  %99 = load ptr, ptr %11, align 8
  %100 = icmp eq ptr %99, null
  br i1 %100, label %101, label %102

101:                                              ; preds = %89
  br label %104

102:                                              ; preds = %89
  %103 = load ptr, ptr %11, align 8
  br label %104

104:                                              ; preds = %102, %101
  %105 = phi ptr [ @.str.12, %101 ], [ %103, %102 ]
  %106 = call i32 (ptr, ptr, ...) @fprintf(ptr noundef %96, ptr noundef @.str.26, i32 noundef %97, ptr noundef @.str.12, i32 noundef %98, ptr noundef @.str.27, ptr noundef %105) #5
  br label %112

107:                                              ; preds = %72
  %108 = load ptr, ptr %7, align 8
  %109 = load i32, ptr %12, align 4
  %110 = load i32, ptr %13, align 4
  %111 = call i32 (ptr, ptr, ...) @fprintf(ptr noundef %108, ptr noundef @.str.19, i32 noundef %109, ptr noundef @.str.12, i32 noundef %110, ptr noundef @.str.28) #5
  br label %112

112:                                              ; preds = %107, %104
  br label %120

113:                                              ; preds = %23, %23
  br label %114

114:                                              ; preds = %113, %23
  %115 = load ptr, ptr %7, align 8
  %116 = load ptr, ptr %6, align 8
  %117 = getelementptr inbounds %struct.H5G_entry_t, ptr %116, i32 0, i32 0
  %118 = load i32, ptr %117, align 8
  %119 = call i32 (ptr, ptr, ...) @fprintf(ptr noundef %115, ptr noundef @.str.29, i32 noundef %118) #5
  br label %120

120:                                              ; preds = %114, %112, %49, %46
  ret i32 0
}