; Function Attrs: nounwind uwtable
define noundef i32 @H5G__ent_debug(ptr nocapture noundef readonly %0, ptr nocapture noundef %1, i32 noundef %2, i32 noundef %3, ptr noundef %4) local_unnamed_addr #0 {
  %6 = add nsw i32 %2, 3
  %7 = tail call i32 @llvm.smax.i32(i32 %3, i32 3)
  %8 = add nsw i32 %7, -3
  %9 = getelementptr inbounds i8, ptr %0, i64 24
  %10 = load i64, ptr %9, align 8
  %11 = tail call i32 (ptr, ptr, ...) @fprintf(ptr noundef %1, ptr noundef nonnull @.str.11, i32 noundef %2, ptr noundef nonnull @.str.12, i32 noundef %3, ptr noundef nonnull @.str.13, i64 noundef %10) #9
  %12 = getelementptr inbounds i8, ptr %0, i64 32
  %13 = load i64, ptr %12, align 8
  %14 = tail call i32 (ptr, ptr, ...) @fprintf(ptr noundef %1, ptr noundef nonnull @.str.11, i32 noundef %2, ptr noundef nonnull @.str.12, i32 noundef %3, ptr noundef nonnull @.str.14, i64 noundef %13) #9
  %15 = tail call i32 (ptr, ptr, ...) @fprintf(ptr noundef %1, ptr noundef nonnull @.str.15, i32 noundef %2, ptr noundef nonnull @.str.12, i32 noundef %3, ptr noundef nonnull @.str.16) #9
  %16 = load i32, ptr %0, align 8
  switch i32 %16, label %42 [
    i32 0, label %17
    i32 1, label %19
    i32 2, label %28
  ]

17:                                               ; preds = %5
  %18 = tail call i64 @fwrite(ptr nonnull @.str.17, i64 15, i64 1, ptr %1)
  br label %44

19:                                               ; preds = %5
  %20 = tail call i64 @fwrite(ptr nonnull @.str.18, i64 13, i64 1, ptr %1)
  %21 = tail call i32 (ptr, ptr, ...) @fprintf(ptr noundef %1, ptr noundef nonnull @.str.19, i32 noundef %2, ptr noundef nonnull @.str.12, i32 noundef %3, ptr noundef nonnull @.str.20) #9
  %22 = getelementptr inbounds i8, ptr %0, i64 8
  %23 = load i64, ptr %22, align 8
  %24 = tail call i32 (ptr, ptr, ...) @fprintf(ptr noundef %1, ptr noundef nonnull @.str.11, i32 noundef %6, ptr noundef nonnull @.str.12, i32 noundef %8, ptr noundef nonnull @.str.21, i64 noundef %23) #9
  %25 = getelementptr inbounds i8, ptr %0, i64 16
  %26 = load i64, ptr %25, align 8
  %27 = tail call i32 (ptr, ptr, ...) @fprintf(ptr noundef %1, ptr noundef nonnull @.str.11, i32 noundef %6, ptr noundef nonnull @.str.12, i32 noundef %8, ptr noundef nonnull @.str.22, i64 noundef %26) #9
  br label %44

28:                                               ; preds = %5
  %29 = tail call i64 @fwrite(ptr nonnull @.str.23, i64 14, i64 1, ptr %1)
  %30 = tail call i32 (ptr, ptr, ...) @fprintf(ptr noundef %1, ptr noundef nonnull @.str.19, i32 noundef %2, ptr noundef nonnull @.str.12, i32 noundef %3, ptr noundef nonnull @.str.24) #9
  %31 = getelementptr inbounds i8, ptr %0, i64 8
  %32 = load i64, ptr %31, align 8
  %33 = tail call i32 (ptr, ptr, ...) @fprintf(ptr noundef %1, ptr noundef nonnull @.str.11, i32 noundef %6, ptr noundef nonnull @.str.12, i32 noundef %8, ptr noundef nonnull @.str.25, i64 noundef %32) #9
  %.not = icmp eq ptr %4, null
  br i1 %.not, label %40, label %34

34:                                               ; preds = %28
  %35 = load i64, ptr %31, align 8
  %36 = tail call ptr @H5HL_offset_into(ptr noundef nonnull %4, i64 noundef %35) #9
  %37 = icmp eq ptr %36, null
  %38 = select i1 %37, ptr @.str.12, ptr %36
  %39 = tail call i32 (ptr, ptr, ...) @fprintf(ptr noundef %1, ptr noundef nonnull @.str.26, i32 noundef %6, ptr noundef nonnull @.str.12, i32 noundef %8, ptr noundef nonnull @.str.27, ptr noundef nonnull %38) #9
  br label %44

40:                                               ; preds = %28
  %41 = tail call i32 (ptr, ptr, ...) @fprintf(ptr noundef %1, ptr noundef nonnull @.str.19, i32 noundef %6, ptr noundef nonnull @.str.12, i32 noundef %8, ptr noundef nonnull @.str.28) #9
  br label %44

42:                                               ; preds = %5
  %43 = tail call i32 (ptr, ptr, ...) @fprintf(ptr noundef %1, ptr noundef nonnull @.str.29, i32 noundef %16) #9
  br label %44

44:                                               ; preds = %34, %40, %42, %19, %17
  ret i32 0
}